target datalayout = "e-m:e-p270:32:32-p271:32:32-p272:64:64-i64:64-i128:128-f80:128-n8:16:32:64-S128"
target triple = "x86_64-pc-linux-gnu"

%struct.Vec_Ptr_t_ = type { i32, i32, ptr }
%struct.Vec_Int_t_ = type { i32, i32, ptr }
%struct.Abc_Obj_t_ = type { ptr, ptr, i32, i32, %struct.Vec_Int_t_, %struct.Vec_Int_t_, %union.anon, %union.anon.0 }
%union.anon = type { ptr }
%union.anon.0 = type { ptr }

; Function Attrs: inlinehint nounwind uwtable
define internal i32 @Abc_ObjFaninC0(ptr noundef %0) #2 {
  %2 = alloca ptr, align 8
  store ptr %0, ptr %2, align 8, !tbaa !32
  %3 = load ptr, ptr %2, align 8, !tbaa !32
  %4 = getelementptr inbounds nuw %struct.Abc_Obj_t_, ptr %3, i32 0, i32 3
  %5 = load i32, ptr %4, align 4
  %6 = lshr i32 %5, 10
  %7 = and i32 %6, 1
  ret i32 %7
}

; Function Attrs: inlinehint nounwind uwtable
define internal i32 @Abc_ObjFaninId0(ptr noundef %0) #2 {
  %2 = alloca ptr, align 8
  store ptr %0, ptr %2, align 8, !tbaa !32
  %3 = load ptr, ptr %2, align 8, !tbaa !32
  %4 = getelementptr inbounds nuw %struct.Abc_Obj_t_, ptr %3, i32 0, i32 4
  %5 = getelementptr inbounds nuw %struct.Vec_Int_t_, ptr %4, i32 0, i32 2
  %6 = load ptr, ptr %5, align 8, !tbaa !69
  %7 = getelementptr inbounds i32, ptr %6, i64 0
  %8 = load i32, ptr %7, align 4, !tbaa !3
  ret i32 %8
}

; Function Attrs: inlinehint nounwind uwtable
define internal ptr @Vec_PtrEntry(ptr noundef %0, i32 noundef %1) #2 {
  %3 = alloca ptr, align 8
  %4 = alloca i32, align 4
  store ptr %0, ptr %3, align 8, !tbaa !7
  store i32 %1, ptr %4, align 4, !tbaa !3
  %5 = load ptr, ptr %3, align 8, !tbaa !7
  %6 = getelementptr inbounds nuw %struct.Vec_Ptr_t_, ptr %5, i32 0, i32 2
  %7 = load ptr, ptr %6, align 8, !tbaa !10
  %8 = load i32, ptr %4, align 4, !tbaa !3
  %9 = sext i32 %8 to i64
  %10 = getelementptr inbounds ptr, ptr %7, i64 %9
  %11 = load ptr, ptr %10, align 8, !tbaa !12
  ret ptr %11
}

; Function Attrs: nounwind uwtable
define void @Sim_UtilTransferNodeOne(ptr noundef %0, ptr noundef %1, i32 noundef %2, i32 noundef %3, i32 noundef %4) #0 {
  %6 = alloca ptr, align 8
  %7 = alloca ptr, align 8
  %8 = alloca i32, align 4
  %9 = alloca i32, align 4
  %10 = alloca i32, align 4
  %11 = alloca ptr, align 8
  %12 = alloca ptr, align 8
  %13 = alloca i32, align 4
  %14 = alloca i32, align 4
  store ptr %0, ptr %6, align 8, !tbaa !32
  store ptr %1, ptr %7, align 8, !tbaa !7
  store i32 %2, ptr %8, align 4, !tbaa !3
  store i32 %3, ptr %9, align 4, !tbaa !3
  store i32 %4, ptr %10, align 4, !tbaa !3
  call void @llvm.lifetime.start.p0(i64 8, ptr %11) #8
  call void @llvm.lifetime.start.p0(i64 8, ptr %12) #8
  call void @llvm.lifetime.start.p0(i64 4, ptr %13) #8
  call void @llvm.lifetime.start.p0(i64 4, ptr %14) #8
  %15 = load ptr, ptr %7, align 8, !tbaa !7
  %16 = load ptr, ptr %6, align 8, !tbaa !32
  %17 = getelementptr inbounds nuw %struct.Abc_Obj_t_, ptr %16, i32 0, i32 2
  %18 = load i32, ptr %17, align 8, !tbaa !40
  %19 = call ptr @Vec_PtrEntry(ptr noundef %15, i32 noundef %18)
  store ptr %19, ptr %11, align 8, !tbaa !17
  %20 = load ptr, ptr %7, align 8, !tbaa !7
  %21 = load ptr, ptr %6, align 8, !tbaa !32
  %22 = call i32 @Abc_ObjFaninId0(ptr noundef %21)
  %23 = call ptr @Vec_PtrEntry(ptr noundef %20, i32 noundef %22)
  store ptr %23, ptr %12, align 8, !tbaa !17
  %24 = load i32, ptr %9, align 4, !tbaa !3
  %25 = load i32, ptr %10, align 4, !tbaa !3
  %26 = icmp sgt i32 %25, 0
  %27 = zext i1 %26 to i32
  %28 = load i32, ptr %8, align 4, !tbaa !3
  %29 = mul nsw i32 %27, %28
  %30 = add nsw i32 %24, %29
  %31 = load ptr, ptr %11, align 8, !tbaa !17
  %32 = sext i32 %30 to i64
  %33 = getelementptr inbounds i32, ptr %31, i64 %32
  store ptr %33, ptr %11, align 8, !tbaa !17
  %34 = load i32, ptr %9, align 4, !tbaa !3
  %35 = load ptr, ptr %12, align 8, !tbaa !17
  %36 = sext i32 %34 to i64
  %37 = getelementptr inbounds i32, ptr %35, i64 %36
  store ptr %37, ptr %12, align 8, !tbaa !17
  %38 = load ptr, ptr %6, align 8, !tbaa !32
  %39 = call i32 @Abc_ObjFaninC0(ptr noundef %38)
  store i32 %39, ptr %14, align 4, !tbaa !3
  %40 = load i32, ptr %14, align 4, !tbaa !3
  %41 = icmp ne i32 %40, 0
  br i1 %41, label %42, label %62

42:                                               ; preds = %5
  store i32 0, ptr %13, align 4, !tbaa !3
  br label %43

43:                                               ; preds = %58, %42
  %44 = load i32, ptr %13, align 4, !tbaa !3
  %45 = load i32, ptr %8, align 4, !tbaa !3
  %46 = icmp slt i32 %44, %45
  br i1 %46, label %47, label %61

47:                                               ; preds = %43
  %48 = load ptr, ptr %12, align 8, !tbaa !17
  %49 = load i32, ptr %13, align 4, !tbaa !3
  %50 = sext i32 %49 to i64
  %51 = getelementptr inbounds i32, ptr %48, i64 %50
  %52 = load i32, ptr %51, align 4, !tbaa !3
  %53 = xor i32 %52, -1
  %54 = load ptr, ptr %11, align 8, !tbaa !17
  %55 = load i32, ptr %13, align 4, !tbaa !3
  %56 = sext i32 %55 to i64
  %57 = getelementptr inbounds i32, ptr %54, i64 %56
  store i32 %53, ptr %57, align 4, !tbaa !3
  br label %58

58:                                               ; preds = %47
  %59 = load i32, ptr %13, align 4, !tbaa !3
  %60 = add nsw i32 %59, 1
  store i32 %60, ptr %13, align 4, !tbaa !3
  br label %43, !llvm.loop !74

61:                                               ; preds = %43
  br label %81

62:                                               ; preds = %5
  store i32 0, ptr %13, align 4, !tbaa !3
  br label %63

63:                                               ; preds = %77, %62
  %64 = load i32, ptr %13, align 4, !tbaa !3
  %65 = load i32, ptr %8, align 4, !tbaa !3
  %66 = icmp slt i32 %64, %65
  br i1 %66, label %67, label %80

67:                                               ; preds = %63
  %68 = load ptr, ptr %12, align 8, !tbaa !17
  %69 = load i32, ptr %13, align 4, !tbaa !3
  %70 = sext i32 %69 to i64
  %71 = getelementptr inbounds i32, ptr %68, i64 %70
  %72 = load i32, ptr %71, align 4, !tbaa !3
  %73 = load ptr, ptr %11, align 8, !tbaa !17
  %74 = load i32, ptr %13, align 4, !tbaa !3
  %75 = sext i32 %74 to i64
  %76 = getelementptr inbounds i32, ptr %73, i64 %75
  store i32 %72, ptr %76, align 4, !tbaa !3
  br label %77

77:                                               ; preds = %67
  %78 = load i32, ptr %13, align 4, !tbaa !3
  %79 = add nsw i32 %78, 1
  store i32 %79, ptr %13, align 4, !tbaa !3
  br label %63, !llvm.loop !75

80:                                               ; preds = %63
  br label %81

81:                                               ; preds = %80, %61
  call void @llvm.lifetime.end.p0(i64 4, ptr %14) #8
  call void @llvm.lifetime.end.p0(i64 4, ptr %13) #8
  call void @llvm.lifetime.end.p0(i64 8, ptr %12) #8
  call void @llvm.lifetime.end.p0(i64 8, ptr %11) #8
  ret void
}