; Function Attrs: nofree norecurse nosync nounwind memory(readwrite, inaccessiblemem: none) uwtable
define void @Sim_UtilTransferNodeOne(ptr noundef readonly captures(none) %0, ptr noundef readonly captures(none) %1, i32 noundef %2, i32 noundef %3, i32 noundef %4) local_unnamed_addr #8 {
  %6 = getelementptr inbounds nuw i8, ptr %0, i64 16
  %7 = load i32, ptr %6, align 8, !tbaa !33
  %8 = getelementptr i8, ptr %1, i64 8
  %.val25 = load ptr, ptr %8, align 8, !tbaa !9
  %9 = sext i32 %7 to i64
  %10 = getelementptr inbounds ptr, ptr %.val25, i64 %9
  %11 = load ptr, ptr %10, align 8, !tbaa !10
  %12 = getelementptr i8, ptr %0, i64 32
  %.val26 = load ptr, ptr %12, align 8, !tbaa !57
  %.val26.val = load i32, ptr %.val26, align 4, !tbaa !14
  %13 = sext i32 %.val26.val to i64
  %14 = getelementptr inbounds ptr, ptr %.val25, i64 %13
  %15 = load ptr, ptr %14, align 8, !tbaa !10
  %16 = icmp sgt i32 %4, 0
  %17 = select i1 %16, i32 %2, i32 0
  %18 = add nsw i32 %17, %3
  %19 = sext i32 %18 to i64
  %20 = getelementptr inbounds i32, ptr %11, i64 %19
  %21 = sext i32 %3 to i64
  %22 = getelementptr inbounds i32, ptr %15, i64 %21
  %23 = getelementptr i8, ptr %0, i64 20
  %.val27 = load i32, ptr %23, align 4
  %24 = and i32 %.val27, 1024
  %.not = icmp eq i32 %24, 0
  %25 = icmp sgt i32 %2, 0
  br i1 %.not, label %.preheader, label %.preheader28

.preheader28:                                     ; preds = %5
  br i1 %25, label %.lr.ph.preheader, label %.loopexit

.lr.ph.preheader:                                 ; preds = %.preheader28
  %wide.trip.count = zext nneg i32 %2 to i64
  br label %.lr.ph

.preheader:                                       ; preds = %5
  br i1 %25, label %.lr.ph32.preheader, label %.loopexit

.lr.ph32.preheader:                               ; preds = %.preheader
  %wide.trip.count38 = zext nneg i32 %2 to i64
  br label %.lr.ph32

.lr.ph:                                           ; preds = %.lr.ph.preheader, %.lr.ph
  %indvars.iv = phi i64 [ 0, %.lr.ph.preheader ], [ %indvars.iv.next, %.lr.ph ]
  %26 = getelementptr inbounds nuw i32, ptr %22, i64 %indvars.iv
  %27 = load i32, ptr %26, align 4, !tbaa !14
  %28 = xor i32 %27, -1
  %29 = getelementptr inbounds nuw i32, ptr %20, i64 %indvars.iv
  store i32 %28, ptr %29, align 4, !tbaa !14
  %indvars.iv.next = add nuw nsw i64 %indvars.iv, 1
  %exitcond.not = icmp eq i64 %indvars.iv.next, %wide.trip.count
  br i1 %exitcond.not, label %.loopexit, label %.lr.ph, !llvm.loop !68

.lr.ph32:                                         ; preds = %.lr.ph32.preheader, %.lr.ph32
  %indvars.iv35 = phi i64 [ 0, %.lr.ph32.preheader ], [ %indvars.iv.next36, %.lr.ph32 ]
  %30 = getelementptr inbounds nuw i32, ptr %22, i64 %indvars.iv35
  %31 = load i32, ptr %30, align 4, !tbaa !14
  %32 = getelementptr inbounds nuw i32, ptr %20, i64 %indvars.iv35
  store i32 %31, ptr %32, align 4, !tbaa !14
  %indvars.iv.next36 = add nuw nsw i64 %indvars.iv35, 1
  %exitcond39.not = icmp eq i64 %indvars.iv.next36, %wide.trip.count38
  br i1 %exitcond39.not, label %.loopexit, label %.lr.ph32, !llvm.loop !69

.loopexit:                                        ; preds = %.lr.ph, %.lr.ph32, %.preheader28, %.preheader
  ret void
}